target datalayout = "e-m:e-p270:32:32-p271:32:32-p272:64:64-i64:64-i128:128-f80:128-n8:16:32:64-S128"
target triple = "x86_64-pc-linux-gnu"

%struct.Vec_Int_t_ = type { i32, i32, ptr }
%struct.Aig_Man_t_ = type { ptr, ptr, ptr, ptr, ptr, ptr, ptr, %struct.Aig_Obj_t_, i32, i32, i32, i32, i32, i32, [7 x i32], i32, ptr, i32, ptr, i32, ptr, i32, i32, i32, ptr, i32, i32, i32, i32, i32, ptr, ptr, i32, ptr, ptr, i32, ptr, ptr, i32, i32, i32, ptr, ptr, ptr, ptr, ptr, ptr, ptr, ptr, ptr, ptr, ptr, ptr, ptr, ptr, i32, ptr, ptr, ptr, ptr, i32, i64, i64, i64, ptr, ptr }
%struct.Aig_Obj_t_ = type { %union.anon, ptr, ptr, i64, i32, i32, %union.anon.0 }
%union.anon = type { ptr }
%union.anon.0 = type { ptr }

; Function Attrs: nounwind uwtable
define internal void @Vec_IntFree(ptr noundef %0) #0 {
  %2 = alloca ptr, align 8
  store ptr %0, ptr %2, align 8
  %3 = load ptr, ptr %2, align 8
  %4 = getelementptr inbounds %struct.Vec_Int_t_, ptr %3, i32 0, i32 2
  %5 = load ptr, ptr %4, align 8
  %6 = icmp ne ptr %5, null
  br i1 %6, label %7, label %13

7:                                                ; preds = %1
  %8 = load ptr, ptr %2, align 8
  %9 = getelementptr inbounds %struct.Vec_Int_t_, ptr %8, i32 0, i32 2
  %10 = load ptr, ptr %9, align 8
  call void @free(ptr noundef %10) #10
  %11 = load ptr, ptr %2, align 8
  %12 = getelementptr inbounds %struct.Vec_Int_t_, ptr %11, i32 0, i32 2
  store ptr null, ptr %12, align 8
  br label %14

13:                                               ; preds = %1
  br label %14

14:                                               ; preds = %13, %7
  %15 = load ptr, ptr %2, align 8
  %16 = icmp ne ptr %15, null
  br i1 %16, label %17, label %19

17:                                               ; preds = %14
  %18 = load ptr, ptr %2, align 8
  call void @free(ptr noundef %18) #10
  store ptr null, ptr %2, align 8
  br label %20

19:                                               ; preds = %14
  br label %20

20:                                               ; preds = %19, %17
  ret void
}

; Function Attrs: nounwind uwtable
define ptr @Abc_NtkDarRetime(ptr noundef %0, i32 noundef %1, i32 noundef %2) #0 {
  %4 = alloca ptr, align 8
  %5 = alloca ptr, align 8
  %6 = alloca i32, align 4
  %7 = alloca i32, align 4
  %8 = alloca ptr, align 8
  %9 = alloca ptr, align 8
  %10 = alloca ptr, align 8
  store ptr %0, ptr %5, align 8
  store i32 %1, ptr %6, align 4
  store i32 %2, ptr %7, align 4
  %11 = load ptr, ptr %5, align 8
  %12 = call ptr @Abc_NtkToDar(ptr noundef %11, i32 noundef 0, i32 noundef 1)
  store ptr %12, ptr %9, align 8
  %13 = load ptr, ptr %9, align 8
  %14 = icmp eq ptr %13, null
  br i1 %14, label %15, label %16

15:                                               ; preds = %3
  store ptr null, ptr %4, align 8
  br label %38

16:                                               ; preds = %3
  %17 = load ptr, ptr %9, align 8
  %18 = getelementptr inbounds %struct.Aig_Man_t_, ptr %17, i32 0, i32 49
  %19 = load ptr, ptr %18, align 8
  %20 = icmp ne ptr %19, null
  br i1 %20, label %21, label %25

21:                                               ; preds = %16
  %22 = load ptr, ptr %9, align 8
  %23 = getelementptr inbounds %struct.Aig_Man_t_, ptr %22, i32 0, i32 49
  %24 = load ptr, ptr %23, align 8
  call void @Vec_IntFree(ptr noundef %24)
  br label %25

25:                                               ; preds = %21, %16
  %26 = load ptr, ptr %9, align 8
  %27 = getelementptr inbounds %struct.Aig_Man_t_, ptr %26, i32 0, i32 49
  store ptr null, ptr %27, align 8
  %28 = load ptr, ptr %9, align 8
  store ptr %28, ptr %10, align 8
  %29 = load i32, ptr %6, align 4
  %30 = load i32, ptr %7, align 4
  %31 = call ptr @Rtm_ManRetime(ptr noundef %28, i32 noundef 1, i32 noundef %29, i32 noundef %30)
  store ptr %31, ptr %9, align 8
  %32 = load ptr, ptr %10, align 8
  call void @Aig_ManStop(ptr noundef %32)
  %33 = load ptr, ptr %5, align 8
  %34 = load ptr, ptr %9, align 8
  %35 = call ptr @Abc_NtkFromDarSeqSweep(ptr noundef %33, ptr noundef %34)
  store ptr %35, ptr %8, align 8
  %36 = load ptr, ptr %9, align 8
  call void @Aig_ManStop(ptr noundef %36)
  %37 = load ptr, ptr %8, align 8
  store ptr %37, ptr %4, align 8
  br label %38

38:                                               ; preds = %25, %15
  %39 = load ptr, ptr %4, align 8
  ret ptr %39
}