; Function Attrs: nounwind uwtable
define ptr @Abc_NtkDarRetime(ptr noundef %0, i32 noundef %1, i32 noundef %2) local_unnamed_addr #1 {
  %4 = tail call ptr @Abc_NtkToDar(ptr noundef %0, i32 noundef 0, i32 noundef 1)
  %5 = icmp eq ptr %4, null
  br i1 %5, label %16, label %6

6:                                                ; preds = %3
  %7 = getelementptr inbounds nuw i8, ptr %4, i64 392
  %8 = load ptr, ptr %7, align 8
  %.not = icmp eq ptr %8, null
  br i1 %.not, label %13, label %9

9:                                                ; preds = %6
  %10 = getelementptr inbounds nuw i8, ptr %8, i64 8
  %11 = load ptr, ptr %10, align 8
  %.not.i = icmp eq ptr %11, null
  br i1 %.not.i, label %Vec_IntFree.exit, label %12

12:                                               ; preds = %9
  tail call void @free(ptr noundef nonnull %11) #19
  br label %Vec_IntFree.exit

Vec_IntFree.exit:                                 ; preds = %9, %12
  tail call void @free(ptr noundef nonnull %8) #19
  br label %13

13:                                               ; preds = %Vec_IntFree.exit, %6
  store ptr null, ptr %7, align 8
  %14 = tail call ptr @Rtm_ManRetime(ptr noundef nonnull %4, i32 noundef 1, i32 noundef %1, i32 noundef %2) #19
  tail call void @Aig_ManStop(ptr noundef nonnull %4) #19
  %15 = tail call ptr @Abc_NtkFromDarSeqSweep(ptr noundef %0, ptr noundef %14)
  tail call void @Aig_ManStop(ptr noundef %14) #19
  br label %16

16:                                               ; preds = %3, %13
  %.0 = phi ptr [ %15, %13 ], [ null, %3 ]
  ret ptr %.0
}